target datalayout = "e-m:e-p270:32:32-p271:32:32-p272:64:64-i64:64-i128:128-f80:128-n8:16:32:64-S128"
target triple = "x86_64-pc-linux-gnu"

; Function Attrs: nounwind uwtable
define internal zeroext i1 @ftp_endofresp(ptr noundef %0, ptr noundef %1, ptr noundef %2, i64 noundef %3, ptr noundef %4) #0 {
  %6 = alloca i1, align 1
  %7 = alloca ptr, align 8
  %8 = alloca ptr, align 8
  %9 = alloca ptr, align 8
  %10 = alloca i64, align 8
  %11 = alloca ptr, align 8
  store ptr %0, ptr %7, align 8, !tbaa !4
  store ptr %1, ptr %8, align 8, !tbaa !9
  store ptr %2, ptr %9, align 8, !tbaa !18
  store i64 %3, ptr %10, align 8, !tbaa !125
  store ptr %4, ptr %11, align 8, !tbaa !143
  %12 = load i64, ptr %10, align 8, !tbaa !125
  %13 = icmp ugt i64 %12, 3
  br i1 %13, label %14, label %61

14:                                               ; preds = %5
  %15 = load ptr, ptr %9, align 8, !tbaa !18
  %16 = getelementptr inbounds i8, ptr %15, i64 0
  %17 = load i8, ptr %16, align 1, !tbaa !30
  %18 = sext i8 %17 to i32
  %19 = icmp sge i32 %18, 48
  br i1 %19, label %20, label %61

20:                                               ; preds = %14
  %21 = load ptr, ptr %9, align 8, !tbaa !18
  %22 = getelementptr inbounds i8, ptr %21, i64 0
  %23 = load i8, ptr %22, align 1, !tbaa !30
  %24 = sext i8 %23 to i32
  %25 = icmp sle i32 %24, 57
  br i1 %25, label %26, label %61

26:                                               ; preds = %20
  %27 = load ptr, ptr %9, align 8, !tbaa !18
  %28 = getelementptr inbounds i8, ptr %27, i64 1
  %29 = load i8, ptr %28, align 1, !tbaa !30
  %30 = sext i8 %29 to i32
  %31 = icmp sge i32 %30, 48
  br i1 %31, label %32, label %61

32:                                               ; preds = %26
  %33 = load ptr, ptr %9, align 8, !tbaa !18
  %34 = getelementptr inbounds i8, ptr %33, i64 1
  %35 = load i8, ptr %34, align 1, !tbaa !30
  %36 = sext i8 %35 to i32
  %37 = icmp sle i32 %36, 57
  br i1 %37, label %38, label %61

38:                                               ; preds = %32
  %39 = load ptr, ptr %9, align 8, !tbaa !18
  %40 = getelementptr inbounds i8, ptr %39, i64 2
  %41 = load i8, ptr %40, align 1, !tbaa !30
  %42 = sext i8 %41 to i32
  %43 = icmp sge i32 %42, 48
  br i1 %43, label %44, label %61

44:                                               ; preds = %38
  %45 = load ptr, ptr %9, align 8, !tbaa !18
  %46 = getelementptr inbounds i8, ptr %45, i64 2
  %47 = load i8, ptr %46, align 1, !tbaa !30
  %48 = sext i8 %47 to i32
  %49 = icmp sle i32 %48, 57
  br i1 %49, label %50, label %61

50:                                               ; preds = %44
  %51 = load ptr, ptr %9, align 8, !tbaa !18
  %52 = getelementptr inbounds i8, ptr %51, i64 3
  %53 = load i8, ptr %52, align 1, !tbaa !30
  %54 = sext i8 %53 to i32
  %55 = icmp eq i32 32, %54
  br i1 %55, label %56, label %61

56:                                               ; preds = %50
  %57 = load ptr, ptr %9, align 8, !tbaa !18
  %58 = call i64 @strtol(ptr noundef %57, ptr noundef null, i32 noundef 10) #9
  %59 = call i32 @curlx_sltosi(i64 noundef %58)
  %60 = load ptr, ptr %11, align 8, !tbaa !143
  store i32 %59, ptr %60, align 4, !tbaa !11
  store i1 true, ptr %6, align 1
  br label %62

61:                                               ; preds = %50, %44, %38, %32, %26, %20, %14, %5
  store i1 false, ptr %6, align 1
  br label %62

62:                                               ; preds = %61, %56
  %63 = load i1, ptr %6, align 1
  ret i1 %63
}